target datalayout = "e-m:e-p270:32:32-p271:32:32-p272:64:64-i64:64-i128:128-f80:128-n8:16:32:64-S128"
target triple = "x86_64-unknown-linux-gnu"

%struct.ERSTDeviceState = type { %struct.PCIDevice, ptr, ptr, i32, i32, %struct.MemoryRegion, %struct.MemoryRegion, i8, i8, i8, i32, i64, i64, i64, ptr, i32, i32, i32 }
%struct.PCIDevice = type { %struct.DeviceState, i8, i8, ptr, ptr, ptr, ptr, ptr, i32, %struct.PCIReqIDCache, [64 x i8], [7 x %struct.PCIIORegion], %struct.AddressSpace, %struct.MemoryRegion, %struct.MemoryRegion, ptr, ptr, [3 x ptr], i8, i8, i32, i8, i32, ptr, ptr, ptr, ptr, ptr, ptr, %struct.MemoryRegion, %struct.MemoryRegion, %struct.MemoryRegion, ptr, i8, i32, i8, %struct.PCIExpressDevice, ptr, ptr, i32, i8, %struct.MemoryRegion, i32, ptr, ptr, ptr, ptr, ptr, i32 }
%struct.DeviceState = type { %struct.Object, ptr, ptr, i8, i8, i64, ptr, i32, i8, ptr, %struct.NamedGPIOListHead, %struct.NamedClockListHead, %struct.BusStateHead, i32, i32, i32, %struct.ResettableState, ptr, %struct.MemReentrancyGuard }
%struct.Object = type { ptr, ptr, ptr, i32, ptr }
%struct.NamedGPIOListHead = type { ptr }
%struct.NamedClockListHead = type { ptr }
%struct.BusStateHead = type { ptr }
%struct.ResettableState = type { i32, i8, i8 }
%struct.MemReentrancyGuard = type { i8 }
%struct.PCIReqIDCache = type { ptr, i32 }
%struct.PCIIORegion = type { i64, i64, i8, ptr, ptr }
%struct.AddressSpace = type { %struct.rcu_head, ptr, ptr, ptr, i32, i32, ptr, %union.anon.0, %union.anon.1 }
%struct.rcu_head = type { ptr, ptr }
%union.anon.0 = type { %struct.QTailQLink }
%struct.QTailQLink = type { ptr, ptr }
%union.anon.1 = type { %struct.QTailQLink }
%struct.PCIExpressDevice = type { i8, i8, i8, i16, %struct.PCIEAERLog, i16, i16, i16, %struct.PCIESriovPF, %struct.PCIESriovVF }
%struct.PCIEAERLog = type { i16, i16, ptr }
%struct.PCIESriovPF = type { i16, [7 x i8], ptr, ptr }
%struct.PCIESriovVF = type { ptr, i16 }
%struct.MemoryRegion = type { %struct.Object, i8, i8, i8, i8, i8, i8, i8, i8, i8, i8, ptr, ptr, ptr, ptr, ptr, ptr, i32, i128, i64, ptr, i64, i8, i8, i8, i8, i8, ptr, i64, i32, %union.anon.2, %union.anon.3, %union.anon.4, ptr, i32, ptr, ptr, i8 }
%union.anon.2 = type { %struct.QTailQLink }
%union.anon.3 = type { %struct.QTailQLink }
%union.anon.4 = type { %struct.QTailQLink }
%struct.ERSTStorageHeader = type { i64, i32, i32, i16, i16, i32, [0 x i64] }

; Function Attrs: nounwind sspstrong uwtable
define internal i64 @le64_to_cpu(i64 noundef %v) #0 {
entry:
  %v.addr = alloca i64, align 8
  store i64 %v, ptr %v.addr, align 8
  %0 = load i64, ptr %v.addr, align 8
  ret i64 %0
}

; Function Attrs: nounwind sspstrong uwtable
define internal i32 @le32_to_cpu(i32 noundef %v) #0 {
entry:
  %v.addr = alloca i32, align 4
  store i32 %v, ptr %v.addr, align 4
  %0 = load i32, ptr %v.addr, align 4
  ret i32 %0
}

; Function Attrs: nounwind sspstrong uwtable
define internal i32 @get_next_record_identifier(ptr noundef %s, ptr noundef %record_identifier, i1 noundef zeroext %first) #0 {
entry:
  %s.addr = alloca ptr, align 8
  %record_identifier.addr = alloca ptr, align 8
  %first.addr = alloca i8, align 1
  %found = alloca i32, align 4
  %index = alloca i32, align 4
  store ptr %s, ptr %s.addr, align 8
  store ptr %record_identifier, ptr %record_identifier.addr, align 8
  %frombool = zext i1 %first to i8
  store i8 %frombool, ptr %first.addr, align 1
  store i32 0, ptr %found, align 4
  %0 = load i8, ptr %first.addr, align 1
  %tobool = trunc i8 %0 to i1
  br i1 %tobool, label %if.then, label %if.end

if.then:                                          ; preds = %entry
  %1 = load ptr, ptr %s.addr, align 8
  %first_record_index = getelementptr inbounds %struct.ERSTDeviceState, ptr %1, i32 0, i32 15
  %2 = load i32, ptr %first_record_index, align 8
  %3 = load ptr, ptr %s.addr, align 8
  %next_record_index = getelementptr inbounds %struct.ERSTDeviceState, ptr %3, i32 0, i32 17
  store i32 %2, ptr %next_record_index, align 16
  br label %if.end

if.end:                                           ; preds = %if.then, %entry
  %4 = load ptr, ptr %s.addr, align 8
  %next_record_index1 = getelementptr inbounds %struct.ERSTDeviceState, ptr %4, i32 0, i32 17
  %5 = load i32, ptr %next_record_index1, align 16
  store i32 %5, ptr %index, align 4
  %6 = load ptr, ptr %record_identifier.addr, align 8
  store i64 -1, ptr %6, align 8
  %7 = load ptr, ptr %s.addr, align 8
  %header = getelementptr inbounds %struct.ERSTDeviceState, ptr %7, i32 0, i32 14
  %8 = load ptr, ptr %header, align 16
  %record_count = getelementptr inbounds %struct.ERSTStorageHeader, ptr %8, i32 0, i32 5
  %9 = load i32, ptr %record_count, align 1
  %call = call i32 @le32_to_cpu(i32 noundef %9)
  %tobool2 = icmp ne i32 %call, 0
  br i1 %tobool2, label %if.then3, label %if.end15

if.then3:                                         ; preds = %if.end
  br label %for.cond

for.cond:                                         ; preds = %for.inc, %if.then3
  %10 = load i32, ptr %index, align 4
  %11 = load ptr, ptr %s.addr, align 8
  %last_record_index = getelementptr inbounds %struct.ERSTDeviceState, ptr %11, i32 0, i32 16
  %12 = load i32, ptr %last_record_index, align 4
  %cmp = icmp ult i32 %10, %12
  br i1 %cmp, label %for.body, label %for.end

for.body:                                         ; preds = %for.cond
  %13 = load ptr, ptr %s.addr, align 8
  %header4 = getelementptr inbounds %struct.ERSTDeviceState, ptr %13, i32 0, i32 14
  %14 = load ptr, ptr %header4, align 16
  %map = getelementptr inbounds %struct.ERSTStorageHeader, ptr %14, i32 0, i32 6
  %15 = load i32, ptr %index, align 4
  %idxprom = zext i32 %15 to i64
  %arrayidx = getelementptr [0 x i64], ptr %map, i64 0, i64 %idxprom
  %16 = load i64, ptr %arrayidx, align 1
  %call5 = call i64 @le64_to_cpu(i64 noundef %16)
  %cmp6 = icmp ne i64 %call5, 0
  br i1 %cmp6, label %if.then7, label %if.end14

if.then7:                                         ; preds = %for.body
  %17 = load i32, ptr %index, align 4
  %add = add i32 %17, 1
  %18 = load ptr, ptr %s.addr, align 8
  %next_record_index8 = getelementptr inbounds %struct.ERSTDeviceState, ptr %18, i32 0, i32 17
  store i32 %add, ptr %next_record_index8, align 16
  %19 = load ptr, ptr %s.addr, align 8
  %header9 = getelementptr inbounds %struct.ERSTDeviceState, ptr %19, i32 0, i32 14
  %20 = load ptr, ptr %header9, align 16
  %map10 = getelementptr inbounds %struct.ERSTStorageHeader, ptr %20, i32 0, i32 6
  %21 = load i32, ptr %index, align 4
  %idxprom11 = zext i32 %21 to i64
  %arrayidx12 = getelementptr [0 x i64], ptr %map10, i64 0, i64 %idxprom11
  %22 = load i64, ptr %arrayidx12, align 1
  %call13 = call i64 @le64_to_cpu(i64 noundef %22)
  %23 = load ptr, ptr %record_identifier.addr, align 8
  store i64 %call13, ptr %23, align 8
  store i32 1, ptr %found, align 4
  br label %for.end

if.end14:                                         ; preds = %for.body
  br label %for.inc

for.inc:                                          ; preds = %if.end14
  %24 = load i32, ptr %index, align 4
  %inc = add i32 %24, 1
  store i32 %inc, ptr %index, align 4
  br label %for.cond, !llvm.loop !5

for.end:                                          ; preds = %if.then7, %for.cond
  br label %if.end15

if.end15:                                         ; preds = %for.end, %if.end
  %25 = load i32, ptr %found, align 4
  %tobool16 = icmp ne i32 %25, 0
  br i1 %tobool16, label %if.end20, label %if.then17

if.then17:                                        ; preds = %if.end15
  %26 = load ptr, ptr %s.addr, align 8
  %first_record_index18 = getelementptr inbounds %struct.ERSTDeviceState, ptr %26, i32 0, i32 15
  %27 = load i32, ptr %first_record_index18, align 8
  %28 = load ptr, ptr %s.addr, align 8
  %next_record_index19 = getelementptr inbounds %struct.ERSTDeviceState, ptr %28, i32 0, i32 17
  store i32 %27, ptr %next_record_index19, align 16
  br label %if.end20

if.end20:                                         ; preds = %if.then17, %if.end15
  ret i32 0
}