; Function Attrs: nofree norecurse nosync nounwind sspstrong memory(read, argmem: readwrite, inaccessiblemem: none) uwtable
define internal fastcc void @get_next_record_identifier(ptr noundef captures(none) %s, ptr noundef writeonly captures(none) initializes((0, 8)) %record_identifier, i1 noundef zeroext %first) unnamed_addr #5 {
entry:
  br i1 %first, label %if.then, label %entry.if.end_crit_edge

entry.if.end_crit_edge:                           ; preds = %entry
  %next_record_index1.phi.trans.insert = getelementptr inbounds nuw i8, ptr %s, i64 3232
  %.pre = load i32, ptr %next_record_index1.phi.trans.insert, align 16
  br label %if.end

if.then:                                          ; preds = %entry
  %first_record_index = getelementptr inbounds nuw i8, ptr %s, i64 3224
  %0 = load i32, ptr %first_record_index, align 8
  %next_record_index = getelementptr inbounds nuw i8, ptr %s, i64 3232
  store i32 %0, ptr %next_record_index, align 16
  br label %if.end

if.end:                                           ; preds = %entry.if.end_crit_edge, %if.then
  %1 = phi i32 [ %.pre, %entry.if.end_crit_edge ], [ %0, %if.then ]
  %next_record_index1 = getelementptr inbounds nuw i8, ptr %s, i64 3232
  store i64 -1, ptr %record_identifier, align 8
  %header = getelementptr inbounds nuw i8, ptr %s, i64 3216
  %2 = load ptr, ptr %header, align 16
  %record_count = getelementptr inbounds nuw i8, ptr %2, i64 20
  %3 = load i32, ptr %record_count, align 1
  %tobool2.not = icmp eq i32 %3, 0
  br i1 %tobool2.not, label %if.then17, label %for.cond.preheader

for.cond.preheader:                               ; preds = %if.end
  %last_record_index = getelementptr inbounds nuw i8, ptr %s, i64 3228
  %4 = load i32, ptr %last_record_index, align 4
  %cmp16 = icmp ult i32 %1, %4
  br i1 %cmp16, label %for.body.lr.ph, label %if.then17

for.body.lr.ph:                                   ; preds = %for.cond.preheader
  %map = getelementptr inbounds nuw i8, ptr %2, i64 24
  %5 = zext i32 %1 to i64
  %wide.trip.count = zext i32 %4 to i64
  br label %for.body

for.body:                                         ; preds = %for.body.lr.ph, %for.inc
  %indvars.iv = phi i64 [ %5, %for.body.lr.ph ], [ %indvars.iv.next, %for.inc ]
  %arrayidx = getelementptr [0 x i64], ptr %map, i64 0, i64 %indvars.iv
  %6 = load i64, ptr %arrayidx, align 1
  %cmp6.not = icmp eq i64 %6, 0
  br i1 %cmp6.not, label %for.inc, label %if.then7

if.then7:                                         ; preds = %for.body
  %arrayidx.le = getelementptr [0 x i64], ptr %map, i64 0, i64 %indvars.iv
  %7 = trunc nuw i64 %indvars.iv to i32
  %add = add nuw i32 %7, 1
  store i32 %add, ptr %next_record_index1, align 16
  %8 = load i64, ptr %arrayidx.le, align 1
  store i64 %8, ptr %record_identifier, align 8
  br label %if.end20

for.inc:                                          ; preds = %for.body
  %indvars.iv.next = add nuw nsw i64 %indvars.iv, 1
  %exitcond.not = icmp eq i64 %indvars.iv.next, %wide.trip.count
  br i1 %exitcond.not, label %if.then17, label %for.body, !llvm.loop !8

if.then17:                                        ; preds = %for.inc, %for.cond.preheader, %if.end
  %first_record_index18 = getelementptr inbounds nuw i8, ptr %s, i64 3224
  %9 = load i32, ptr %first_record_index18, align 8
  store i32 %9, ptr %next_record_index1, align 16
  br label %if.end20

if.end20:                                         ; preds = %if.then7, %if.then17
  ret void
}